; Function Attrs: mustprogress uwtable
define void @_Z18drawSimplePolyLineP6GLAreaR6QPointfPSt6vectorI7QPointFSaIS4_EE(ptr nocapture noundef readonly %0, ptr nocapture noundef nonnull readonly align 4 dereferenceable(8) %1, float noundef %2, ptr nocapture noundef readonly %3) local_unnamed_addr #9 {
  tail call void @glMatrixMode(i32 noundef 5889)
  tail call void @glPushMatrix()
  tail call void @glLoadIdentity()
  %5 = getelementptr inbounds i8, ptr %0, i64 40
  %6 = load ptr, ptr %5, align 8
  %7 = getelementptr inbounds i8, ptr %6, i64 20
  %8 = getelementptr inbounds i8, ptr %6, i64 28
  %9 = load i32, ptr %8, align 4
  %10 = load i32, ptr %7, align 4
  %11 = add i32 %9, 1
  %12 = sub i32 %11, %10
  %13 = sitofp i32 %12 to double
  %14 = getelementptr inbounds i8, ptr %6, i64 32
  %15 = load i32, ptr %14, align 4
  %16 = getelementptr inbounds i8, ptr %6, i64 24
  %17 = load i32, ptr %16, align 4
  %18 = add i32 %15, 1
  %19 = sub i32 %18, %17
  %20 = sitofp i32 %19 to double
  tail call void @glOrtho(double noundef 0.000000e+00, double noundef %13, double noundef %20, double noundef 0.000000e+00, double noundef -1.000000e+00, double noundef 1.000000e+00)
  tail call void @glMatrixMode(i32 noundef 5888)
  tail call void @glPushMatrix()
  tail call void @glLoadIdentity()
  tail call void @glPushAttrib(i32 noundef 8192)
  tail call void @glDisable(i32 noundef 2929)
  tail call void @glDisable(i32 noundef 2896)
  tail call void @glDisable(i32 noundef 3553)
  tail call void @glEnable(i32 noundef 3058)
  tail call void @glLogicOp(i32 noundef 5382)
  tail call void @glColor3f(float noundef 1.000000e+00, float noundef 1.000000e+00, float noundef 1.000000e+00)
  tail call void @glBegin(i32 noundef 2)
  %21 = getelementptr inbounds i8, ptr %3, i64 8
  %22 = load ptr, ptr %21, align 8
  %23 = load ptr, ptr %3, align 8
  %.not = icmp eq ptr %22, %23
  br i1 %.not, label %._crit_edge, label %_ZNSt6vectorI7QPointFSaIS0_EE2atEm.exit14.lr.ph

_ZNSt6vectorI7QPointFSaIS0_EE2atEm.exit14.lr.ph:  ; preds = %4
  %24 = fpext float %2 to double
  %25 = getelementptr inbounds i8, ptr %1, i64 4
  br label %_ZNSt6vectorI7QPointFSaIS0_EE2atEm.exit14

_ZNSt6vectorI7QPointFSaIS0_EE2atEm.exit14:        ; preds = %_ZNSt6vectorI7QPointFSaIS0_EE2atEm.exit14.lr.ph, %_ZNSt6vectorI7QPointFSaIS0_EE2atEm.exit14
  %26 = phi ptr [ %23, %_ZNSt6vectorI7QPointFSaIS0_EE2atEm.exit14.lr.ph ], [ %43, %_ZNSt6vectorI7QPointFSaIS0_EE2atEm.exit14 ]
  %27 = phi i64 [ 0, %_ZNSt6vectorI7QPointFSaIS0_EE2atEm.exit14.lr.ph ], [ %41, %_ZNSt6vectorI7QPointFSaIS0_EE2atEm.exit14 ]
  %.016 = phi i32 [ 0, %_ZNSt6vectorI7QPointFSaIS0_EE2atEm.exit14.lr.ph ], [ %40, %_ZNSt6vectorI7QPointFSaIS0_EE2atEm.exit14 ]
  %28 = load i32, ptr %1, align 4
  %29 = sitofp i32 %28 to double
  %30 = getelementptr inbounds %class.QPointF, ptr %26, i64 %27
  %31 = load double, ptr %30, align 8
  %32 = tail call double @llvm.fmuladd.f64(double %31, double %24, double %29)
  %33 = fptrunc double %32 to float
  %34 = load i32, ptr %25, align 4
  %35 = sitofp i32 %34 to double
  %36 = getelementptr inbounds i8, ptr %30, i64 8
  %37 = load double, ptr %36, align 8
  %38 = tail call double @llvm.fmuladd.f64(double %37, double %24, double %35)
  %39 = fptrunc double %38 to float
  tail call void @glVertex2f(float noundef %33, float noundef %39)
  %40 = add i32 %.016, 1
  %41 = zext i32 %40 to i64
  %42 = load ptr, ptr %21, align 8
  %43 = load ptr, ptr %3, align 8
  %44 = ptrtoint ptr %42 to i64
  %45 = ptrtoint ptr %43 to i64
  %46 = sub i64 %44, %45
  %47 = ashr exact i64 %46, 4
  %48 = icmp ugt i64 %47, %41
  br i1 %48, label %_ZNSt6vectorI7QPointFSaIS0_EE2atEm.exit14, label %._crit_edge, !llvm.loop !32

._crit_edge:                                      ; preds = %_ZNSt6vectorI7QPointFSaIS0_EE2atEm.exit14, %4
  tail call void @glEnd()
  tail call void @glDisable(i32 noundef 3057)
  tail call void @glPopAttrib()
  tail call void @glPopMatrix()
  tail call void @glMatrixMode(i32 noundef 5889)
  tail call void @glPopMatrix()
  tail call void @glMatrixMode(i32 noundef 5888)
  ret void
}